; Function Attrs: nofree norecurse nosync nounwind memory(argmem: readwrite) uwtable
define void @rgb64tobgr48_bswap(ptr noundef readonly captures(none) %0, ptr noundef writeonly captures(none) %1, i32 noundef %2) local_unnamed_addr #0 {
  %4 = ashr i32 %2, 3
  %5 = icmp sgt i32 %4, 0
  br i1 %5, label %.lr.ph.preheader, label %._crit_edge

.lr.ph.preheader:                                 ; preds = %3
  %wide.trip.count = zext nneg i32 %4 to i64
  br label %.lr.ph

.lr.ph:                                           ; preds = %.lr.ph.preheader, %.lr.ph
  %indvars.iv = phi i64 [ 0, %.lr.ph.preheader ], [ %indvars.iv.next, %.lr.ph ]
  %.idx = shl nsw i64 %indvars.iv, 3
  %6 = getelementptr inbounds nuw i8, ptr %0, i64 %.idx
  %7 = getelementptr inbounds nuw i8, ptr %6, i64 4
  %8 = load i16, ptr %7, align 2, !tbaa !16
  %9 = tail call i16 @llvm.bswap.i16(i16 %8)
  %.idx19 = mul nuw nsw i64 %indvars.iv, 6
  %10 = getelementptr inbounds nuw i8, ptr %1, i64 %.idx19
  store i16 %9, ptr %10, align 2, !tbaa !16
  %11 = getelementptr inbounds nuw i8, ptr %6, i64 2
  %12 = load i16, ptr %11, align 2, !tbaa !16
  %13 = tail call i16 @llvm.bswap.i16(i16 %12)
  %14 = getelementptr inbounds nuw i8, ptr %10, i64 2
  store i16 %13, ptr %14, align 2, !tbaa !16
  %15 = load i16, ptr %6, align 2, !tbaa !16
  %16 = tail call i16 @llvm.bswap.i16(i16 %15)
  %17 = getelementptr inbounds nuw i8, ptr %10, i64 4
  store i16 %16, ptr %17, align 2, !tbaa !16
  %indvars.iv.next = add nuw nsw i64 %indvars.iv, 1
  %exitcond.not = icmp eq i64 %indvars.iv.next, %wide.trip.count
  br i1 %exitcond.not, label %._crit_edge, label %.lr.ph, !llvm.loop !31

._crit_edge:                                      ; preds = %.lr.ph, %3
  ret void
}